target datalayout = "e-m:e-p270:32:32-p271:32:32-p272:64:64-i64:64-i128:128-f80:128-n8:16:32:64-S128"
target triple = "x86_64-pc-linux-gnu"

%struct._packet_info = type { ptr, ptr, i32, i32, %struct.nstime_t, %struct.nstime_t, %struct.nstime_t, i8, ptr, ptr, ptr, ptr, %struct._address, %struct._address, %struct._address, %struct._address, %struct._address, %struct._address, i32, ptr, i8, [3 x i8], %struct.anon, i32, i32, i32, i32, ptr, i8, ptr, ptr, i16, i16, i32, i32, i16, i32, i32, ptr, ptr, ptr, i8, i8, i16, i16, i16, i32, i16, i16, ptr, ptr, ptr, ptr, ptr, i32, i32 }
%struct.nstime_t = type { i64, i32 }
%struct._address = type { i32, i32, ptr, ptr }
%struct.anon = type { i8, [3 x i8] }

@hf_cops_mode = internal global i32 0, align 4
@hf_cops_format = internal global i32 0, align 4
@hf_cops_operator = internal global i32 0, align 4
@hf_cops_act = internal global i32 0, align 4

; Function Attrs: alwaysinline nounwind
define internal ptr @memcpy.inline(ptr noalias %0, ptr noalias %1, i64 %2) #9 {
  %4 = alloca ptr, align 8
  %5 = alloca ptr, align 8
  %6 = alloca i64, align 8
  store ptr %0, ptr %4, align 8
  store ptr %1, ptr %5, align 8
  store i64 %2, ptr %6, align 8
  %7 = load ptr, ptr %4, align 8
  %8 = load ptr, ptr %5, align 8
  %9 = load i64, ptr %6, align 8
  %10 = load ptr, ptr %4, align 8
  %11 = call i64 @llvm.objectsize.i64.p0(ptr %10, i1 false, i1 true, i1 true)
  %12 = call ptr @__memcpy_chk(ptr noundef %7, ptr noundef %8, i64 noundef %9, i64 noundef %11) #12
  ret ptr %12
}

; Function Attrs: null_pointer_is_valid sspstrong uwtable
define internal i32 @get_uint_parameter(ptr noundef %0, ptr noundef %1, i32 noundef %2) #0 {
  %4 = alloca ptr, align 8
  %5 = alloca ptr, align 8
  %6 = alloca i32, align 4
  %7 = alloca i32, align 4
  %8 = alloca ptr, align 8
  store ptr %0, ptr %4, align 8
  store ptr %1, ptr %5, align 8
  store i32 %2, ptr %6, align 4
  call void @llvm.lifetime.start.p0(i64 4, ptr %7) #12
  call void @llvm.lifetime.start.p0(i64 8, ptr %8) #12
  %9 = load ptr, ptr %4, align 8
  %10 = load i32, ptr %6, align 4
  %11 = add i32 %10, 1
  %12 = sext i32 %11 to i64
  %13 = call noalias ptr @wmem_alloc(ptr noundef %9, i64 noundef %12) #13
  store ptr %13, ptr %8, align 8
  %14 = load ptr, ptr %8, align 8
  %15 = load ptr, ptr %5, align 8
  %16 = load i32, ptr %6, align 4
  %17 = sext i32 %16 to i64
  %18 = call ptr @memcpy.inline(ptr noundef %14, ptr noundef %15, i64 noundef %17) #12
  %19 = load ptr, ptr %8, align 8
  %20 = load i32, ptr %6, align 4
  %21 = sext i32 %20 to i64
  %22 = getelementptr i8, ptr %19, i64 %21
  store i8 0, ptr %22, align 1
  %23 = load ptr, ptr %8, align 8
  %24 = call i64 @g_ascii_strtoull(ptr noundef %23, ptr noundef null, i32 noundef 10)
  %25 = trunc i64 %24 to i32
  store i32 %25, ptr %7, align 4
  %26 = load i32, ptr %7, align 4
  call void @llvm.lifetime.end.p0(i64 8, ptr %8) #12
  call void @llvm.lifetime.end.p0(i64 4, ptr %7) #12
  ret i32 %26
}

; Function Attrs: null_pointer_is_valid sspstrong uwtable
define internal zeroext i1 @dissect_cops_parameter(ptr noundef %0, ptr noundef %1, ptr noundef %2, i32 noundef %3, i32 noundef %4, i16 noundef zeroext %5, ptr noundef %6, i32 noundef %7, i32 noundef %8, ptr noundef %9, ptr noundef %10) #0 {
  %12 = alloca i1, align 1
  %13 = alloca ptr, align 8
  %14 = alloca ptr, align 8
  %15 = alloca ptr, align 8
  %16 = alloca i32, align 4
  %17 = alloca i32, align 4
  %18 = alloca i16, align 2
  %19 = alloca ptr, align 8
  %20 = alloca i32, align 4
  %21 = alloca i32, align 4
  %22 = alloca ptr, align 8
  %23 = alloca ptr, align 8
  %24 = alloca i32, align 4
  %25 = alloca i32, align 4
  store ptr %0, ptr %13, align 8
  store ptr %1, ptr %14, align 8
  store ptr %2, ptr %15, align 8
  store i32 %3, ptr %16, align 4
  store i32 %4, ptr %17, align 4
  store i16 %5, ptr %18, align 2
  store ptr %6, ptr %19, align 8
  store i32 %7, ptr %20, align 4
  store i32 %8, ptr %21, align 4
  store ptr %9, ptr %22, align 8
  store ptr %10, ptr %23, align 8
  call void @llvm.lifetime.start.p0(i64 4, ptr %24) #12
  %26 = load i32, ptr %17, align 4
  %27 = icmp eq i32 %26, 2
  br i1 %27, label %28, label %36

28:                                               ; preds = %11
  %29 = load i16, ptr %18, align 2
  %30 = zext i16 %29 to i32
  %31 = icmp eq i32 %30, 61
  br i1 %31, label %44, label %32

32:                                               ; preds = %28
  %33 = load i16, ptr %18, align 2
  %34 = zext i16 %33 to i32
  %35 = icmp eq i32 %34, 63
  br i1 %35, label %44, label %36

36:                                               ; preds = %32, %11
  %37 = load i32, ptr %17, align 4
  %38 = icmp eq i32 %37, 1
  br i1 %38, label %39, label %43

39:                                               ; preds = %36
  %40 = load i16, ptr %18, align 2
  %41 = zext i16 %40 to i32
  %42 = icmp eq i32 %41, 58
  br i1 %42, label %44, label %43

43:                                               ; preds = %39, %36
  store i1 false, ptr %12, align 1
  store i32 1, ptr %25, align 4
  br label %100

44:                                               ; preds = %39, %32, %28
  %45 = load i32, ptr %20, align 4
  %46 = icmp ugt i32 %45, 3
  br i1 %46, label %47, label %48

47:                                               ; preds = %44
  store i1 false, ptr %12, align 1
  store i32 1, ptr %25, align 4
  br label %100

48:                                               ; preds = %44
  %49 = load i32, ptr %20, align 4
  switch i32 %49, label %99 [
    i32 0, label %50
    i32 1, label %64
    i32 2, label %78
    i32 3, label %85
  ]

50:                                               ; preds = %48
  %51 = load ptr, ptr %14, align 8
  %52 = getelementptr inbounds nuw %struct._packet_info, ptr %51, i32 0, i32 51
  %53 = load ptr, ptr %52, align 8
  %54 = load ptr, ptr %19, align 8
  %55 = load i32, ptr %21, align 4
  %56 = call i32 @get_uint_parameter(ptr noundef %53, ptr noundef %54, i32 noundef %55)
  store i32 %56, ptr %24, align 4
  %57 = load ptr, ptr %15, align 8
  %58 = load i32, ptr @hf_cops_mode, align 4
  %59 = load ptr, ptr %13, align 8
  %60 = load i32, ptr %16, align 4
  %61 = load i32, ptr %21, align 4
  %62 = load i32, ptr %24, align 4
  %63 = call ptr @proto_tree_add_uint(ptr noundef %57, i32 noundef %58, ptr noundef %59, i32 noundef %60, i32 noundef %61, i32 noundef %62)
  br label %99

64:                                               ; preds = %48
  %65 = load ptr, ptr %14, align 8
  %66 = getelementptr inbounds nuw %struct._packet_info, ptr %65, i32 0, i32 51
  %67 = load ptr, ptr %66, align 8
  %68 = load ptr, ptr %19, align 8
  %69 = load i32, ptr %21, align 4
  %70 = call i32 @get_uint_parameter(ptr noundef %67, ptr noundef %68, i32 noundef %69)
  store i32 %70, ptr %24, align 4
  %71 = load ptr, ptr %15, align 8
  %72 = load i32, ptr @hf_cops_format, align 4
  %73 = load ptr, ptr %13, align 8
  %74 = load i32, ptr %16, align 4
  %75 = load i32, ptr %21, align 4
  %76 = load i32, ptr %24, align 4
  %77 = call ptr @proto_tree_add_uint(ptr noundef %71, i32 noundef %72, ptr noundef %73, i32 noundef %74, i32 noundef %75, i32 noundef %76)
  br label %99

78:                                               ; preds = %48
  %79 = load ptr, ptr %15, align 8
  %80 = load i32, ptr @hf_cops_operator, align 4
  %81 = load ptr, ptr %13, align 8
  %82 = load i32, ptr %16, align 4
  %83 = load i32, ptr %21, align 4
  %84 = call ptr @proto_tree_add_item(ptr noundef %79, i32 noundef %80, ptr noundef %81, i32 noundef %82, i32 noundef %83, i32 noundef 0)
  br label %99

85:                                               ; preds = %48
  %86 = load ptr, ptr %14, align 8
  %87 = getelementptr inbounds nuw %struct._packet_info, ptr %86, i32 0, i32 51
  %88 = load ptr, ptr %87, align 8
  %89 = load ptr, ptr %19, align 8
  %90 = load i32, ptr %21, align 4
  %91 = call i32 @get_uint_parameter(ptr noundef %88, ptr noundef %89, i32 noundef %90)
  store i32 %91, ptr %24, align 4
  %92 = load ptr, ptr %15, align 8
  %93 = load i32, ptr @hf_cops_act, align 4
  %94 = load ptr, ptr %13, align 8
  %95 = load i32, ptr %16, align 4
  %96 = load i32, ptr %21, align 4
  %97 = load i32, ptr %24, align 4
  %98 = call ptr @proto_tree_add_uint(ptr noundef %92, i32 noundef %93, ptr noundef %94, i32 noundef %95, i32 noundef %96, i32 noundef %97)
  br label %99

99:                                               ; preds = %48, %85, %78, %64, %50
  store i1 true, ptr %12, align 1
  store i32 1, ptr %25, align 4
  br label %100

100:                                              ; preds = %99, %47, %43
  call void @llvm.lifetime.end.p0(i64 4, ptr %24) #12
  %101 = load i1, ptr %12, align 1
  ret i1 %101
}