; Function Attrs: null_pointer_is_valid sspstrong uwtable
define internal noundef zeroext i1 @dissect_cops_parameter(ptr noundef %0, ptr noundef readonly captures(none) %1, ptr noundef %2, i32 noundef %3, i32 noundef %4, i16 noundef zeroext %5, ptr noundef readonly captures(none) %6, i32 noundef %7, i32 noundef %8, ptr readnone captures(none) %9, ptr readnone captures(none) %10) #0 {
  %12 = icmp eq i32 %4, 2
  %13 = and i16 %5, -3
  %or.cond = icmp eq i16 %13, 61
  %or.cond41 = and i1 %12, %or.cond
  br i1 %or.cond41, label %18, label %14

14:                                               ; preds = %11
  %15 = icmp ne i32 %4, 1
  %16 = icmp ne i16 %5, 58
  %or.cond5.not44 = or i1 %15, %16
  %17 = icmp ugt i32 %7, 3
  %or.cond42 = or i1 %or.cond5.not44, %17
  br i1 %or.cond42, label %65, label %19

18:                                               ; preds = %11
  %.old = icmp ugt i32 %7, 3
  br i1 %.old, label %65, label %19

19:                                               ; preds = %14, %18
  switch i32 %7, label %default.unreachable [
    i32 0, label %20
    i32 1, label %34
    i32 2, label %48
    i32 3, label %51
  ]

20:                                               ; preds = %19
  %21 = getelementptr inbounds nuw i8, ptr %1, i64 408
  %22 = load ptr, ptr %21, align 8
  %23 = add i32 %8, 1
  %24 = sext i32 %23 to i64
  %25 = tail call noalias ptr @wmem_alloc(ptr noundef %22, i64 noundef %24) #12
  %26 = sext i32 %8 to i64
  %27 = icmp ne i32 %23, -1
  tail call void @llvm.assume(i1 %27)
  %28 = tail call ptr @__memcpy_chk(ptr noundef %25, ptr noundef readonly %6, i64 noundef range(i64 -2147483648, 2147483648) %26, i64 noundef %24) #13, !alias.scope !119
  %29 = getelementptr i8, ptr %25, i64 %26
  store i8 0, ptr %29, align 1
  %30 = tail call i64 @g_ascii_strtoull(ptr noundef %25, ptr noundef null, i32 noundef 10)
  %31 = trunc i64 %30 to i32
  %32 = load i32, ptr @hf_cops_mode, align 4
  %33 = tail call ptr @proto_tree_add_uint(ptr noundef %2, i32 noundef %32, ptr noundef %0, i32 noundef %3, i32 noundef %8, i32 noundef %31)
  br label %65

34:                                               ; preds = %19
  %35 = getelementptr inbounds nuw i8, ptr %1, i64 408
  %36 = load ptr, ptr %35, align 8
  %37 = add i32 %8, 1
  %38 = sext i32 %37 to i64
  %39 = tail call noalias ptr @wmem_alloc(ptr noundef %36, i64 noundef %38) #12
  %40 = sext i32 %8 to i64
  %41 = icmp ne i32 %37, -1
  tail call void @llvm.assume(i1 %41)
  %42 = tail call ptr @__memcpy_chk(ptr noundef %39, ptr noundef readonly %6, i64 noundef range(i64 -2147483648, 2147483648) %40, i64 noundef %38) #13, !alias.scope !123
  %43 = getelementptr i8, ptr %39, i64 %40
  store i8 0, ptr %43, align 1
  %44 = tail call i64 @g_ascii_strtoull(ptr noundef %39, ptr noundef null, i32 noundef 10)
  %45 = trunc i64 %44 to i32
  %46 = load i32, ptr @hf_cops_format, align 4
  %47 = tail call ptr @proto_tree_add_uint(ptr noundef %2, i32 noundef %46, ptr noundef %0, i32 noundef %3, i32 noundef %8, i32 noundef %45)
  br label %65

48:                                               ; preds = %19
  %49 = load i32, ptr @hf_cops_operator, align 4
  %50 = tail call ptr @proto_tree_add_item(ptr noundef %2, i32 noundef %49, ptr noundef %0, i32 noundef %3, i32 noundef %8, i32 noundef 0)
  br label %65

51:                                               ; preds = %19
  %52 = getelementptr inbounds nuw i8, ptr %1, i64 408
  %53 = load ptr, ptr %52, align 8
  %54 = add i32 %8, 1
  %55 = sext i32 %54 to i64
  %56 = tail call noalias ptr @wmem_alloc(ptr noundef %53, i64 noundef %55) #12
  %57 = sext i32 %8 to i64
  %58 = icmp ne i32 %54, -1
  tail call void @llvm.assume(i1 %58)
  %59 = tail call ptr @__memcpy_chk(ptr noundef %56, ptr noundef readonly %6, i64 noundef range(i64 -2147483648, 2147483648) %57, i64 noundef %55) #13, !alias.scope !127
  %60 = getelementptr i8, ptr %56, i64 %57
  store i8 0, ptr %60, align 1
  %61 = tail call i64 @g_ascii_strtoull(ptr noundef %56, ptr noundef null, i32 noundef 10)
  %62 = trunc i64 %61 to i32
  %63 = load i32, ptr @hf_cops_act, align 4
  %64 = tail call ptr @proto_tree_add_uint(ptr noundef %2, i32 noundef %63, ptr noundef %0, i32 noundef %3, i32 noundef %8, i32 noundef %62)
  br label %65

default.unreachable:                              ; preds = %19
  unreachable

65:                                               ; preds = %20, %34, %48, %51, %18, %14
  %.0 = phi i1 [ false, %14 ], [ false, %18 ], [ true, %51 ], [ true, %48 ], [ true, %34 ], [ true, %20 ]
  ret i1 %.0
}